target datalayout = "e-m:e-p270:32:32-p271:32:32-p272:64:64-i64:64-i128:128-f80:128-n8:16:32:64-S128"
target triple = "x86_64-pc-linux-gnu"

%struct.rb_iseq_struct = type { i64, i64, ptr, %union.anon.13 }
%union.anon.13 = type { %struct.anon.14 }
%struct.anon.14 = type { i64, i32 }
%struct.rb_iseq_constant_body = type { i32, i32, ptr, %struct.anon.16, %struct.rb_iseq_location_struct, %struct.iseq_insn_info, ptr, ptr, ptr, ptr, ptr, ptr, %struct.anon.17, i32, i32, i32, i32, i32, i32, i32, i32, i8, %union.anon.18, ptr, ptr, ptr, i64, ptr, i64, ptr, i64 }
%struct.anon.16 = type { %struct.anon, i32, i32, i32, i32, i32, i32, i32, ptr, ptr }
%struct.anon = type { i16, [2 x i8] }
%struct.rb_iseq_location_struct = type { i64, i64, i64, i32, i32, %struct.rb_code_location_struct }
%struct.rb_code_location_struct = type { %struct.rb_code_position_struct, %struct.rb_code_position_struct }
%struct.rb_code_position_struct = type { i32, i32 }
%struct.iseq_insn_info = type { ptr, ptr, i32, ptr }
%struct.anon.17 = type { i64, i64, i64, i64, ptr }
%union.anon.18 = type { ptr }

@rb_vm_insn_len_info = external constant [220 x i8], align 16

; Function Attrs: nounwind sspstrong willreturn memory(none) uwtable
define internal i32 @insn_len(i64 noundef %0) #11 {
  %2 = alloca i64, align 8
  store i64 %0, ptr %2, align 8, !tbaa !13
  %3 = load i64, ptr %2, align 8, !tbaa !13
  %4 = getelementptr [220 x i8], ptr @rb_vm_insn_len_info, i64 0, i64 %3
  %5 = load i8, ptr %4, align 1, !tbaa !15
  %6 = zext i8 %5 to i32
  ret i32 %6
}

; Function Attrs: nounwind sspstrong uwtable
define internal zeroext i1 @invokebuiltin_delegate_leave_p(ptr noundef %0) #0 {
  %2 = alloca i1, align 1
  %3 = alloca ptr, align 8
  %4 = alloca i32, align 4
  %5 = alloca i32, align 4
  %6 = alloca i32, align 4
  store ptr %0, ptr %3, align 8, !tbaa !87
  call void @llvm.lifetime.start.p0(i64 4, ptr %4) #5
  %7 = load ptr, ptr %3, align 8, !tbaa !87
  %8 = getelementptr inbounds nuw %struct.rb_iseq_struct, ptr %7, i32 0, i32 2
  %9 = load ptr, ptr %8, align 8, !tbaa !88
  %10 = getelementptr inbounds nuw %struct.rb_iseq_constant_body, ptr %9, i32 0, i32 2
  %11 = load ptr, ptr %10, align 8, !tbaa !113
  %12 = getelementptr i64, ptr %11, i64 0
  %13 = load i64, ptr %12, align 8, !tbaa !13
  %14 = inttoptr i64 %13 to ptr
  %15 = call i32 @rb_vm_insn_addr2opcode(ptr noundef %14)
  store i32 %15, ptr %4, align 4, !tbaa !11
  %16 = load ptr, ptr %3, align 8, !tbaa !87
  %17 = getelementptr inbounds nuw %struct.rb_iseq_struct, ptr %16, i32 0, i32 2
  %18 = load ptr, ptr %17, align 8, !tbaa !88
  %19 = getelementptr inbounds nuw %struct.rb_iseq_constant_body, ptr %18, i32 0, i32 1
  %20 = load i32, ptr %19, align 4, !tbaa !91
  %21 = load i32, ptr %4, align 4, !tbaa !11
  %22 = sext i32 %21 to i64
  %23 = call i32 @insn_len(i64 noundef %22) #27
  %24 = call i32 @insn_len(i64 noundef 69) #27
  %25 = add i32 %23, %24
  %26 = icmp ne i32 %20, %25
  br i1 %26, label %27, label %28

27:                                               ; preds = %1
  store i1 false, ptr %2, align 1
  store i32 1, ptr %5, align 4
  br label %52

28:                                               ; preds = %1
  call void @llvm.lifetime.start.p0(i64 4, ptr %6) #5
  %29 = load ptr, ptr %3, align 8, !tbaa !87
  %30 = getelementptr inbounds nuw %struct.rb_iseq_struct, ptr %29, i32 0, i32 2
  %31 = load ptr, ptr %30, align 8, !tbaa !88
  %32 = getelementptr inbounds nuw %struct.rb_iseq_constant_body, ptr %31, i32 0, i32 2
  %33 = load ptr, ptr %32, align 8, !tbaa !113
  %34 = load i32, ptr %4, align 4, !tbaa !11
  %35 = sext i32 %34 to i64
  %36 = call i32 @insn_len(i64 noundef %35) #27
  %37 = sext i32 %36 to i64
  %38 = getelementptr i64, ptr %33, i64 %37
  %39 = load i64, ptr %38, align 8, !tbaa !13
  %40 = inttoptr i64 %39 to ptr
  %41 = call i32 @rb_vm_insn_addr2opcode(ptr noundef %40)
  store i32 %41, ptr %6, align 4, !tbaa !11
  %42 = load i32, ptr %4, align 4, !tbaa !11
  %43 = icmp eq i32 %42, 102
  br i1 %43, label %47, label %44

44:                                               ; preds = %28
  %45 = load i32, ptr %4, align 4, !tbaa !11
  %46 = icmp eq i32 %45, 103
  br i1 %46, label %47, label %50

47:                                               ; preds = %44, %28
  %48 = load i32, ptr %6, align 4, !tbaa !11
  %49 = icmp eq i32 %48, 69
  br label %50

50:                                               ; preds = %47, %44
  %51 = phi i1 [ false, %44 ], [ %49, %47 ]
  store i1 %51, ptr %2, align 1
  store i32 1, ptr %5, align 4
  call void @llvm.lifetime.end.p0(i64 4, ptr %6) #5
  br label %52

52:                                               ; preds = %50, %27
  call void @llvm.lifetime.end.p0(i64 4, ptr %4) #5
  %53 = load i1, ptr %2, align 1
  ret i1 %53
}

; Function Attrs: nounwind sspstrong uwtable
define hidden ptr @rb_yjit_builtin_function(ptr noundef %0) #0 {
  %2 = alloca ptr, align 8
  %3 = alloca ptr, align 8
  store ptr %0, ptr %3, align 8, !tbaa !87
  %4 = load ptr, ptr %3, align 8, !tbaa !87
  %5 = call zeroext i1 @invokebuiltin_delegate_leave_p(ptr noundef %4)
  br i1 %5, label %6, label %15

6:                                                ; preds = %1
  %7 = load ptr, ptr %3, align 8, !tbaa !87
  %8 = getelementptr inbounds nuw %struct.rb_iseq_struct, ptr %7, i32 0, i32 2
  %9 = load ptr, ptr %8, align 8, !tbaa !88
  %10 = getelementptr inbounds nuw %struct.rb_iseq_constant_body, ptr %9, i32 0, i32 2
  %11 = load ptr, ptr %10, align 8, !tbaa !113
  %12 = getelementptr i64, ptr %11, i64 1
  %13 = load i64, ptr %12, align 8, !tbaa !13
  %14 = inttoptr i64 %13 to ptr
  store ptr %14, ptr %2, align 8
  br label %16

15:                                               ; preds = %1
  store ptr null, ptr %2, align 8
  br label %16

16:                                               ; preds = %15, %6
  %17 = load ptr, ptr %2, align 8
  ret ptr %17
}