; Function Attrs: nounwind sspstrong uwtable
define hidden ptr @rb_yjit_builtin_function(ptr noundef readonly captures(none) %0) local_unnamed_addr #0 {
  %2 = getelementptr inbounds nuw i8, ptr %0, i64 16
  %3 = load ptr, ptr %2, align 8, !tbaa !94
  %4 = getelementptr inbounds nuw i8, ptr %3, i64 8
  %5 = load ptr, ptr %4, align 8, !tbaa !116
  %6 = load i64, ptr %5, align 8, !tbaa !15
  %7 = inttoptr i64 %6 to ptr
  %8 = tail call i32 @rb_vm_insn_addr2opcode(ptr noundef %7) #5
  %9 = load ptr, ptr %2, align 8, !tbaa !94
  %10 = getelementptr inbounds nuw i8, ptr %9, i64 4
  %11 = load i32, ptr %10, align 4, !tbaa !97
  %12 = sext i32 %8 to i64
  %13 = getelementptr [220 x i8], ptr @rb_vm_insn_len_info, i64 0, i64 %12
  %14 = load i8, ptr %13, align 1, !tbaa !14
  %15 = zext i8 %14 to i32
  %16 = load i8, ptr getelementptr inbounds nuw (i8, ptr @rb_vm_insn_len_info, i64 69), align 1, !tbaa !14
  %17 = zext i8 %16 to i32
  %18 = add nuw nsw i32 %17, %15
  %.not.i = icmp eq i32 %11, %18
  br i1 %.not.i, label %invokebuiltin_delegate_leave_p.exit, label %invokebuiltin_delegate_leave_p.exit.thread

invokebuiltin_delegate_leave_p.exit:              ; preds = %1
  %19 = getelementptr inbounds nuw i8, ptr %9, i64 8
  %20 = load ptr, ptr %19, align 8, !tbaa !116
  %21 = zext i8 %14 to i64
  %22 = getelementptr i64, ptr %20, i64 %21
  %23 = load i64, ptr %22, align 8, !tbaa !15
  %24 = inttoptr i64 %23 to ptr
  %25 = tail call i32 @rb_vm_insn_addr2opcode(ptr noundef %24) #5
  %26 = and i32 %8, -2
  %or.cond.i = icmp eq i32 %26, 102
  %27 = icmp eq i32 %25, 69
  %spec.select.i = select i1 %or.cond.i, i1 %27, i1 false
  br i1 %spec.select.i, label %28, label %invokebuiltin_delegate_leave_p.exit.thread

28:                                               ; preds = %invokebuiltin_delegate_leave_p.exit
  %29 = load ptr, ptr %2, align 8, !tbaa !94
  %30 = getelementptr inbounds nuw i8, ptr %29, i64 8
  %31 = load ptr, ptr %30, align 8, !tbaa !116
  %32 = getelementptr i8, ptr %31, i64 8
  %33 = load i64, ptr %32, align 8, !tbaa !15
  %34 = inttoptr i64 %33 to ptr
  br label %invokebuiltin_delegate_leave_p.exit.thread

invokebuiltin_delegate_leave_p.exit.thread:       ; preds = %1, %invokebuiltin_delegate_leave_p.exit, %28
  %.0 = phi ptr [ %34, %28 ], [ null, %invokebuiltin_delegate_leave_p.exit ], [ null, %1 ]
  ret ptr %.0
}